(dp0
S'q'
p1
L796384024436126242586747284035770554353187297603651732585113813634154030651434101504247162959280724942039284695379351055968609687409424422806359435123465622358401487067384027674413830036666044884257484817700623439939875737536971982853586956964640533506021017848280959963666475671884135891650330794327415222878274761800523901380032614552644251486471148035211361169312547674303739067513892004095527133210486153882983148765128311599975826889269783819512101900558413739352720251584097729988690749909439032461263038593979941308690223878091572619034713475410732991332088610377445789315632684964859939145798913586923213077403351952891546028922222477547911303789400506258227835831910196268027703284690608681385439515811668906589751937787505428344721611872339664923520756010102232249940603038582831916454397303338423955708226461515933483424851235040325484946648566924796493365073135249331831597264794777971361320241964755601907192790628688496927339544584093202409967380209349849703255150455178005368104580574545295542001592455873282989763261211243194622713633902189777570587671089630531998645301304906697967395098581654873339538957786508432956078378231080556327050501438732899913675734941211746680845101924188727238354984166999924989442496507L
sS'p'
p2
L477568419138450631077006263242541418421932098587194376792989256851437668655554030690755949944106414000229917059399691613506871310333988466875905370156368229763935186304281373890138371324919657539264151233887079820145110805701598855685810058192923577515075867690076975389544000990744457444021319128575272596097604418751720568637177539012929405689601613576550710829395354560414229091938905661781394792000147389479718488158851940809895598024778365174751003583318018796477122036213237352634090894102647183843319073746348516801268732252468675504926878721315319872686476738657220183418282542081968392366996555943078544353219070448778232988179658429128005800165802185313284986812185541189818839318123148923539018467041829910725448128577243955405366502500211924546309234351869352272257285592341861388510509665563416595051343662804009530728957950452254307890719511527784622176289761733925574930734432992843521936530724878369163257585984690215196992444508061049266815172313027916945038416451549850981646972088398445236947621696406486453760558561660936888825988609543424795650650715360123488752363820709520810669562446614478509162109140633439834747532358381489079480703885068797046039001397602814656024701634534044534141149191995557849750239833L
sS'phi'
p3
L380327859577078046919391026099183991834635438833523181209702951223895248700686336223438043487602893481104160782713629159804474804082090698666238932620807185336541182560498876913071552054297649788461130892131129058727047194182788717762628130642606455008933672478017105747997483957232938321117798997814988950062738057512577381409409609145474320351874714312792250404414134218552148546539784085399955592987814985296781334711746421947575026204770014963860508319084050217508074138016314615549321717028455510647906169917913498239215374790973431050973412475097136847508336152631697412856730540388543140004011037489318149300002294586339088493147915200497762772652827657134739578404609971412929337210975010840588059606254451332011289594839814463333078717476372194272699895794149694039760596288599865043445671206845947441876210354549022633142919213999751548815840555371202932453227146069447970743913637707019403238032821328823340561004680161240023259238630897675700768701108871554626503428029363979031444298730498641974228060938204984661741816574754935392085259441331324178626039446561743411141828121556197866100451224244492288654450694472971160108883548371734580101097120429611257094291359180234687083635545697077074730125210689629816262616226827072974368352028347167753422432304661822608603024254166002312110862738650737072793892393608853932030905207122981130044658581300823150404418343114859939122820935795544806962687157564632748954052851368061966834323102220040402564380760673381503040924172098916200193019205307790287012485693177936376528689968094158726722743306124313402382118510901207136464186131196526230776829095621926215428563803370164187777974643022143753319045282419349293871591199178934672099233825382945046165568581294270862319959392691057791325629561052616640765320942493036798710680437139473882424120414106876344761715659244864186188886028200600523016016383661724490912370279027494090565783251431723800564581832480820167827935975325248454964727648162371610884884168966365448370016934275200879877242848269922017912902734534941444990953099387111338851585847541145620442581777511518197855235217498361528899055536690059331615990260713714478367450448305495962936640126962894775503480297475824915932441728577360673478105614667398295408936693419681241220376528924461479309903075164264236926165201717147604872332689227090284611542405099795452358826659917533026376441636628866319083608975427493876304670169265674577313454898839737874988659510305629844795315946322026992L
sS'priv_key'
p4
(L380327859577078046919391026099183991834635438833523181209702951223895248700686336223438043487602893481104160782713629159804474804082090698666238932620807185336541182560498876913071552054297649788461130892131129058727047194182788717762628130642606455008933672478017105747997483957232938321117798997814988950062738057512577381409409609145474320351874714312792250404414134218552148546539784085399955592987814985296781334711746421947575026204770014963860508319084050217508074138016314615549321717028455510647906169917913498239215374790973431050973412475097136847508336152631697412856730540388543140004011037489318149300002294586339088493147915200497762772652827657134739578404609971412929337210975010840588059606254451332011289594839814463333078717476372194272699895794149694039760596288599865043445671206845947441876210354549022633142919213999751548815840555371202932453227146069447970743913637707019403238032821328823340561004680161240023259238630897675700768701108871554626503428029363979031444298730498641974228060938204984661741816574754935392085259441331324178626039446561743411141828121556197866100451224244492288654450694472971160108883548371734580101097120429611257094291359180234687083635545697077074730125210689629816262616228101025417942928902010921300700744277436942004793870363544105382596454437957725204988895506512241070973174408877760172714134062298566563294100607920139772974943272468916472364251709765994334656476373004113554537583187206583641135219300070396660605035193195801738550954558518266949641079028849586299431377787070037907274987776141523555947692168077279898075948203195234133011547063781379013094440725295374821321337344659067733571455153844263342020585462284418548531769655225232843500651204075914874406175697273170131654087671011572771325569066454628995436733301158039231458786386840791571808543990757659655718887785631222945417686162678826371819046196131449293257354764254367896302039679023422981585540899783231308463544963362437975634267919054479820921606404105191241848827370467810648837596039499848413892793650146681463171528861694954805935161570348886276307816333039724425882312943218058559386805143970487168001421518755872576315352251294883867657731974258377438310208376870927580205961964418950958352677472368895393500145972448281252214034586703886748659367567955469409862988176624755410227761183164456480628178508618599953518314427454776908545654381958699200106367128980410916128016235709541433711431282801763203790798785514763331L
L62114532231369588763542642744685754728988185928910138809796604836219268569967846542280277592839360773705761948445828869706706642928093693278158380416600587499624972243761101282163519758181697708329845108972713240205768846536229009459803582798326515382191513170640832915769709700230308161320522008826211319710636354951744600886627609808795393562293591084882264675809885955921358183262488944922948587265014194814259209005211737792711312606223749882251222819334397707598920770298746629493834327450016597123848119439294881574121878166638231784831681322085435918821228196013187223592885123111455557492722739385875459894530404788927449823349998837382508601609047917709026133235016598418463897636919295376124813112382689032841051691823929362223193743153505810230952347106129362923645458781403505422364243223343859902436792461547092864044116542770727536313242929616413818550383203823457770686031493822929777777958586683419860871433324227603308437341446260082424045464061554711276813985313477148630135152375398574637732386013648963171398806280538677738378519110263168780728789928356643816383169796177907196317130026809032541220923421172239037605757283804040281207330117603786500660662970076636261569815012577232296498272450007663785798483080804964977509935136182556647724341750427696370155255322652651909942927846542964570372414862972954622540051787792001371874448577653327525079201483561868116864738460361190236618518216819142635963785158404268532862574750878685331666885311213047891391755248616681942255058384772239784105135072295645227123004844964083024930622243107617453175089635223158150304730125467467617112518561972659594261774379087045293608040242979119794915955243232510189992056757821385776332864039325237581457204220392861256312311788284441337912752342602673197322711648204660320079093159604565491875642043418940639160637503499730158241310052099890335699095511505303982896575719398042554682317581753854277282022166011069201042719486326857184012426167759603563313303319897367457708294851610269713627168506829809112821724243139946370354281245839767819526607381339954228452538138856282722306252230527700426664853225880969018993053527974684736058657993987738413266854494041498595554866276211140090295345607631664856847114071401300123555116213161448244388156480647497525205253316712048377897777416234101319044934853251649503985680148485707757354739161748952637132019338271370634929514346295078573713763872231100459619717039738124421147220706091225553984203300264704805L
tp5
sS'e'
p6
L357691590396504749006482658921157262382716474175697771386170366542598362708140373167741870269148437405238077361971917423177198934778546157846958338084813255166917505314452322787822294719059161084227727769729126918045902404970476008638803272116781284017235395921961859617063869880148795744686415386417950822833294053847463838033307339011715804684439316800741019983141491478800987397885407114046990183087619182071591372391501285663603748584284514833352320421534976059790833824057524639829757231843256551853072944913988298928857111981928104202156935831604780769110779099753445487269399200746766927173000027696654935600977620058785010703753331622795562562273721329936554958281540863007118118826280658105377016820748355811764512445104693456056211645959359935470656021751024077384965918213559457873943788244433064376350066737262410199358834364097435812019372585524917809450912151111880090287135793403514728468828070387884790613219338553903936359584546384465877404745640872843152302043604101367418423173444914497752997739622105145663547628600876621180259701965607679183805824704138226788950785195537806301824205560305179203149722368806050413924105873420390030615149355491885955885546307057979281467374547114529989397564189340808668864568063736377047812578273132008280420197641760261795664413116756869699871881744017500496783922639322944449344606544632253253132477056771578803231588650258723544546407334103047130680708562905570201117217484629068768751487797730112581676324430375458106284306912806170186412869549798796898030274915771852194404617537237034913468727977835382510566549325325887100078753396156404358925152005954868949178764181556287487816997587123702282584902349584040201312060433029159517587324747568210425840412964894467163398094278190489431453787109819890617732550676254789042505340758621460998467558853257271659813201540289030042768365263407412181337381307634517066730220275246054500305602402996201070639269909307374756874396997566559029387034353064972094436801421235730975080547065236375104338789989162052066302203472127162735115896425177350343476490124010284276183643429690319344300549892435308174769969684961127863999093008674180215751019968743432091868272617372697585744464574999637021748036927911525240982422620792412452104773239253141312490592956226487775073816952282359893948488588420982549759496234958557866564531368827131663127302707483328970754720814067543571592908386840137345705318106011540115161880532830949251462155609326103910102413652448255757L
sS'd'
p7
L62114532231369588763542642744685754728988185928910138809796604836219268569967846542280277592839360773705761948445828869706706642928093693278158380416600587499624972243761101282163519758181697708329845108972713240205768846536229009459803582798326515382191513170640832915769709700230308161320522008826211319710636354951744600886627609808795393562293591084882264675809885955921358183262488944922948587265014194814259209005211737792711312606223749882251222819334397707598920770298746629493834327450016597123848119439294881574121878166638231784831681322085435918821228196013187223592885123111455557492722739385875459894530404788927449823349998837382508601609047917709026133235016598418463897636919295376124813112382689032841051691823929362223193743153505810230952347106129362923645458781403505422364243223343859902436792461547092864044116542770727536313242929616413818550383203823457770686031493822929777777958586683419860871433324227603308437341446260082424045464061554711276813985313477148630135152375398574637732386013648963171398806280538677738378519110263168780728789928356643816383169796177907196317130026809032541220923421172239037605757283804040281207330117603786500660662970076636261569815012577232296498272450007663785798483080804964977509935136182556647724341750427696370155255322652651909942927846542964570372414862972954622540051787792001371874448577653327525079201483561868116864738460361190236618518216819142635963785158404268532862574750878685331666885311213047891391755248616681942255058384772239784105135072295645227123004844964083024930622243107617453175089635223158150304730125467467617112518561972659594261774379087045293608040242979119794915955243232510189992056757821385776332864039325237581457204220392861256312311788284441337912752342602673197322711648204660320079093159604565491875642043418940639160637503499730158241310052099890335699095511505303982896575719398042554682317581753854277282022166011069201042719486326857184012426167759603563313303319897367457708294851610269713627168506829809112821724243139946370354281245839767819526607381339954228452538138856282722306252230527700426664853225880969018993053527974684736058657993987738413266854494041498595554866276211140090295345607631664856847114071401300123555116213161448244388156480647497525205253316712048377897777416234101319044934853251649503985680148485707757354739161748952637132019338271370634929514346295078573713763872231100459619717039738124421147220706091225553984203300264704805L
sS'pub_key'
p8
(L380327859577078046919391026099183991834635438833523181209702951223895248700686336223438043487602893481104160782713629159804474804082090698666238932620807185336541182560498876913071552054297649788461130892131129058727047194182788717762628130642606455008933672478017105747997483957232938321117798997814988950062738057512577381409409609145474320351874714312792250404414134218552148546539784085399955592987814985296781334711746421947575026204770014963860508319084050217508074138016314615549321717028455510647906169917913498239215374790973431050973412475097136847508336152631697412856730540388543140004011037489318149300002294586339088493147915200497762772652827657134739578404609971412929337210975010840588059606254451332011289594839814463333078717476372194272699895794149694039760596288599865043445671206845947441876210354549022633142919213999751548815840555371202932453227146069447970743913637707019403238032821328823340561004680161240023259238630897675700768701108871554626503428029363979031444298730498641974228060938204984661741816574754935392085259441331324178626039446561743411141828121556197866100451224244492288654450694472971160108883548371734580101097120429611257094291359180234687083635545697077074730125210689629816262616228101025417942928902010921300700744277436942004793870363544105382596454437957725204988895506512241070973174408877760172714134062298566563294100607920139772974943272468916472364251709765994334656476373004113554537583187206583641135219300070396660605035193195801738550954558518266949641079028849586299431377787070037907274987776141523555947692168077279898075948203195234133011547063781379013094440725295374821321337344659067733571455153844263342020585462284418548531769655225232843500651204075914874406175697273170131654087671011572771325569066454628995436733301158039231458786386840791571808543990757659655718887785631222945417686162678826371819046196131449293257354764254367896302039679023422981585540899783231308463544963362437975634267919054479820921606404105191241848827370467810648837596039499848413892793650146681463171528861694954805935161570348886276307816333039724425882312943218058559386805143970487168001421518755872576315352251294883867657731974258377438310208376870927580205961964418950958352677472368895393500145972448281252214034586703886748659367567955469409862988176624755410227761183164456480628178508618599953518314427454776908545654381958699200106367128980410916128016235709541433711431282801763203790798785514763331L
L357691590396504749006482658921157262382716474175697771386170366542598362708140373167741870269148437405238077361971917423177198934778546157846958338084813255166917505314452322787822294719059161084227727769729126918045902404970476008638803272116781284017235395921961859617063869880148795744686415386417950822833294053847463838033307339011715804684439316800741019983141491478800987397885407114046990183087619182071591372391501285663603748584284514833352320421534976059790833824057524639829757231843256551853072944913988298928857111981928104202156935831604780769110779099753445487269399200746766927173000027696654935600977620058785010703753331622795562562273721329936554958281540863007118118826280658105377016820748355811764512445104693456056211645959359935470656021751024077384965918213559457873943788244433064376350066737262410199358834364097435812019372585524917809450912151111880090287135793403514728468828070387884790613219338553903936359584546384465877404745640872843152302043604101367418423173444914497752997739622105145663547628600876621180259701965607679183805824704138226788950785195537806301824205560305179203149722368806050413924105873420390030615149355491885955885546307057979281467374547114529989397564189340808668864568063736377047812578273132008280420197641760261795664413116756869699871881744017500496783922639322944449344606544632253253132477056771578803231588650258723544546407334103047130680708562905570201117217484629068768751487797730112581676324430375458106284306912806170186412869549798796898030274915771852194404617537237034913468727977835382510566549325325887100078753396156404358925152005954868949178764181556287487816997587123702282584902349584040201312060433029159517587324747568210425840412964894467163398094278190489431453787109819890617732550676254789042505340758621460998467558853257271659813201540289030042768365263407412181337381307634517066730220275246054500305602402996201070639269909307374756874396997566559029387034353064972094436801421235730975080547065236375104338789989162052066302203472127162735115896425177350343476490124010284276183643429690319344300549892435308174769969684961127863999093008674180215751019968743432091868272617372697585744464574999637021748036927911525240982422620792412452104773239253141312490592956226487775073816952282359893948488588420982549759496234958557866564531368827131663127302707483328970754720814067543571592908386840137345705318106011540115161880532830949251462155609326103910102413652448255757L
tp9
sS'modulus'
p10
L380327859577078046919391026099183991834635438833523181209702951223895248700686336223438043487602893481104160782713629159804474804082090698666238932620807185336541182560498876913071552054297649788461130892131129058727047194182788717762628130642606455008933672478017105747997483957232938321117798997814988950062738057512577381409409609145474320351874714312792250404414134218552148546539784085399955592987814985296781334711746421947575026204770014963860508319084050217508074138016314615549321717028455510647906169917913498239215374790973431050973412475097136847508336152631697412856730540388543140004011037489318149300002294586339088493147915200497762772652827657134739578404609971412929337210975010840588059606254451332011289594839814463333078717476372194272699895794149694039760596288599865043445671206845947441876210354549022633142919213999751548815840555371202932453227146069447970743913637707019403238032821328823340561004680161240023259238630897675700768701108871554626503428029363979031444298730498641974228060938204984661741816574754935392085259441331324178626039446561743411141828121556197866100451224244492288654450694472971160108883548371734580101097120429611257094291359180234687083635545697077074730125210689629816262616228101025417942928902010921300700744277436942004793870363544105382596454437957725204988895506512241070973174408877760172714134062298566563294100607920139772974943272468916472364251709765994334656476373004113554537583187206583641135219300070396660605035193195801738550954558518266949641079028849586299431377787070037907274987776141523555947692168077279898075948203195234133011547063781379013094440725295374821321337344659067733571455153844263342020585462284418548531769655225232843500651204075914874406175697273170131654087671011572771325569066454628995436733301158039231458786386840791571808543990757659655718887785631222945417686162678826371819046196131449293257354764254367896302039679023422981585540899783231308463544963362437975634267919054479820921606404105191241848827370467810648837596039499848413892793650146681463171528861694954805935161570348886276307816333039724425882312943218058559386805143970487168001421518755872576315352251294883867657731974258377438310208376870927580205961964418950958352677472368895393500145972448281252214034586703886748659367567955469409862988176624755410227761183164456480628178508618599953518314427454776908545654381958699200106367128980410916128016235709541433711431282801763203790798785514763331L
s.