(dp0
S'q'
p1
L11171123869996325240900601285334295353944398383784646517601206823555293474452998728646948673060099774762629084265954064079996822019650452959754951010376781875316511695947631267699712401189690156099104211652668884268150607392274609965047870213138523723297338730332673279784380795879495892274063208086457211353L
sS'p'
p2
L47392002976130790966589736355600287247980437327588208029114206134163826823337360709694829624429298514629860030972384916640270848657291259958298857828631692347115105019717873545039868925329378708905210675721812528187810465481611810479659141948690343938772513808908762358503143403783484620874610780062581539207L
sS'phi'
p3
L529421935693591565014675708708510932836817499996677491098487471000891337466086053010845363170204089534005592661658371561125195506815726062445482178080170283445000234813192633028232910363443254754308792126884632131356243703596063534333131351919014574440263337166225170978415875003034761752115545466788936010587338164547154312439325108879605343357174997792837367300371997701939392098776234497258111931113402451659089581438206160093332666167893819979356246408516012667546731703483604051079561975949647193092391515192373631567292748339929590458664184516734847991677821756771958345514917866045294450982332769866616266512L
sS'priv_key'
p4
(L529421935693591565014675708708510932836817499996677491098487471000891337466086053010845363170204089534005592661658371561125195506815726062445482178080170283445000234813192633028232910363443254754308792126884632131356243703596063534333131351919014574440263337166225170978415875003034761752115545466788936010645901291393281428646815446520539925959099833504210221847087410659658512396566593935599890228602800741051578696676545140813600336844835532897410055247524486889978348419149108863819143302468716058096706402566855044023253821213816010903371196678563715653747674296013393983802442065708274964131006758015655017071L
L485227656500243648659544555632945699186232737071271537265195454663365565693081918093449842699805984817098547404485891774232501312457450490671291061563351571915975032498615235759753014201284048967463664010292111952136763737927642531015389643994276982625552207348393505362815377721085633068564751855638874524672044581018517026800866040444107131615494767594129929035163902683484004524042697178396445407380787576761808798151949731423195996036795832034338438421188955219106525924436822107973524775844575472971111610129510823717631967542711546015286367195588150409594731835409128189071134423700161379338287630783004732009L
tp5
sS'e'
p6
L259495911078780047013019592653753238209082631585279095627059175752287451242461566633615587097086129398956755492393875886433247092360483117411068066485848017313681520306883872440402444428992709551770923667348605119982697825426888230480999995344233090878627709065011321176786167238614651918963200895313602427699122564322432053793902052330925364520676780982518511273571036566004253131100190075264402111703191108635687018854028359154209870357031705253029933003170900825024481023812957156245621114661137308686197993230609006356541063990937939091239234604712653708267808796753780807772872068739214452126512133001401455913L
sS'd'
p7
L485227656500243648659544555632945699186232737071271537265195454663365565693081918093449842699805984817098547404485891774232501312457450490671291061563351571915975032498615235759753014201284048967463664010292111952136763737927642531015389643994276982625552207348393505362815377721085633068564751855638874524672044581018517026800866040444107131615494767594129929035163902683484004524042697178396445407380787576761808798151949731423195996036795832034338438421188955219106525924436822107973524775844575472971111610129510823717631967542711546015286367195588150409594731835409128189071134423700161379338287630783004732009L
sS'pub_key'
p8
(L529421935693591565014675708708510932836817499996677491098487471000891337466086053010845363170204089534005592661658371561125195506815726062445482178080170283445000234813192633028232910363443254754308792126884632131356243703596063534333131351919014574440263337166225170978415875003034761752115545466788936010645901291393281428646815446520539925959099833504210221847087410659658512396566593935599890228602800741051578696676545140813600336844835532897410055247524486889978348419149108863819143302468716058096706402566855044023253821213816010903371196678563715653747674296013393983802442065708274964131006758015655017071L
L259495911078780047013019592653753238209082631585279095627059175752287451242461566633615587097086129398956755492393875886433247092360483117411068066485848017313681520306883872440402444428992709551770923667348605119982697825426888230480999995344233090878627709065011321176786167238614651918963200895313602427699122564322432053793902052330925364520676780982518511273571036566004253131100190075264402111703191108635687018854028359154209870357031705253029933003170900825024481023812957156245621114661137308686197993230609006356541063990937939091239234604712653708267808796753780807772872068739214452126512133001401455913L
tp9
sS'modulus'
p10
L529421935693591565014675708708510932836817499996677491098487471000891337466086053010845363170204089534005592661658371561125195506815726062445482178080170283445000234813192633028232910363443254754308792126884632131356243703596063534333131351919014574440263337166225170978415875003034761752115545466788936010645901291393281428646815446520539925959099833504210221847087410659658512396566593935599890228602800741051578696676545140813600336844835532897410055247524486889978348419149108863819143302468716058096706402566855044023253821213816010903371196678563715653747674296013393983802442065708274964131006758015655017071L
s.